target datalayout = "e-m:e-p270:32:32-p271:32:32-p272:64:64-i64:64-i128:128-f80:128-n8:16:32:64-S128"
target triple = "x86_64-pc-linux-gnu"

%struct.PQExpBufferData = type { ptr, i64, i64 }
%struct.printTableContent = type { ptr, ptr, i32, i32, ptr, ptr, ptr, ptr, i64, ptr, ptr, ptr, ptr, ptr }
%struct.printTableFooter = type { ptr, ptr }

@.str.878 = private unnamed_addr constant [63 x i8] c"SELECT spcname FROM pg_catalog.pg_tablespace\0AWHERE oid = '%u';\00", align 1
@.str.879 = private unnamed_addr constant [17 x i8] c"Tablespace: \22%s\22\00", align 1
@.str.880 = private unnamed_addr constant [3 x i8] c"%s\00", align 1
@.str.881 = private unnamed_addr constant [18 x i8] c", tablespace \22%s\22\00", align 1

; Function Attrs: nounwind uwtable
define internal void @add_tablespace_footer(ptr noundef %0, i8 noundef signext %1, i32 noundef %2, i1 noundef zeroext %3) #0 {
  %5 = alloca ptr, align 8
  %6 = alloca i8, align 1
  %7 = alloca i32, align 4
  %8 = alloca i8, align 1
  %9 = alloca ptr, align 8
  %10 = alloca %struct.PQExpBufferData, align 8
  %11 = alloca i32, align 4
  store ptr %0, ptr %5, align 8
  store i8 %1, ptr %6, align 1
  store i32 %2, ptr %7, align 4
  %12 = zext i1 %3 to i8
  store i8 %12, ptr %8, align 1
  %13 = load i8, ptr %6, align 1
  %14 = sext i8 %13 to i32
  %15 = icmp eq i32 %14, 114
  br i1 %15, label %36, label %16

16:                                               ; preds = %4
  %17 = load i8, ptr %6, align 1
  %18 = sext i8 %17 to i32
  %19 = icmp eq i32 %18, 109
  br i1 %19, label %36, label %20

20:                                               ; preds = %16
  %21 = load i8, ptr %6, align 1
  %22 = sext i8 %21 to i32
  %23 = icmp eq i32 %22, 105
  br i1 %23, label %36, label %24

24:                                               ; preds = %20
  %25 = load i8, ptr %6, align 1
  %26 = sext i8 %25 to i32
  %27 = icmp eq i32 %26, 112
  br i1 %27, label %36, label %28

28:                                               ; preds = %24
  %29 = load i8, ptr %6, align 1
  %30 = sext i8 %29 to i32
  %31 = icmp eq i32 %30, 73
  br i1 %31, label %36, label %32

32:                                               ; preds = %28
  %33 = load i8, ptr %6, align 1
  %34 = sext i8 %33 to i32
  %35 = icmp eq i32 %34, 116
  br i1 %35, label %36, label %78

36:                                               ; preds = %32, %28, %24, %20, %16, %4
  %37 = load i32, ptr %7, align 4
  %38 = icmp ne i32 %37, 0
  br i1 %38, label %39, label %77

39:                                               ; preds = %36
  call void @llvm.lifetime.start.p0(i64 8, ptr %9) #8
  store ptr null, ptr %9, align 8
  call void @llvm.lifetime.start.p0(i64 24, ptr %10) #8
  call void @initPQExpBuffer(ptr noundef %10)
  %40 = load i32, ptr %7, align 4
  call void (ptr, ptr, ...) @printfPQExpBuffer(ptr noundef %10, ptr noundef @.str.878, i32 noundef %40)
  %41 = getelementptr inbounds nuw %struct.PQExpBufferData, ptr %10, i32 0, i32 0
  %42 = load ptr, ptr %41, align 8
  %43 = call ptr @PSQLexec(ptr noundef %42)
  store ptr %43, ptr %9, align 8
  %44 = load ptr, ptr %9, align 8
  %45 = icmp ne ptr %44, null
  br i1 %45, label %47, label %46

46:                                               ; preds = %39
  call void @termPQExpBuffer(ptr noundef %10)
  store i32 1, ptr %11, align 4
  br label %74

47:                                               ; preds = %39
  %48 = load ptr, ptr %9, align 8
  %49 = call i32 @PQntuples(ptr noundef %48)
  %50 = icmp sgt i32 %49, 0
  br i1 %50, label %51, label %72

51:                                               ; preds = %47
  %52 = load i8, ptr %8, align 1, !range !4, !noundef !5
  %53 = trunc i8 %52 to i1
  br i1 %53, label %54, label %60

54:                                               ; preds = %51
  %55 = load ptr, ptr %9, align 8
  %56 = call ptr @PQgetvalue(ptr noundef %55, i32 noundef 0, i32 noundef 0)
  call void (ptr, ptr, ...) @printfPQExpBuffer(ptr noundef %10, ptr noundef @.str.879, ptr noundef %56)
  %57 = load ptr, ptr %5, align 8
  %58 = getelementptr inbounds nuw %struct.PQExpBufferData, ptr %10, i32 0, i32 0
  %59 = load ptr, ptr %58, align 8
  call void @printTableAddFooter(ptr noundef %57, ptr noundef %59)
  br label %71

60:                                               ; preds = %51
  %61 = load ptr, ptr %5, align 8
  %62 = getelementptr inbounds nuw %struct.printTableContent, ptr %61, i32 0, i32 11
  %63 = load ptr, ptr %62, align 8
  %64 = getelementptr inbounds nuw %struct.printTableFooter, ptr %63, i32 0, i32 0
  %65 = load ptr, ptr %64, align 8
  call void (ptr, ptr, ...) @printfPQExpBuffer(ptr noundef %10, ptr noundef @.str.880, ptr noundef %65)
  %66 = load ptr, ptr %9, align 8
  %67 = call ptr @PQgetvalue(ptr noundef %66, i32 noundef 0, i32 noundef 0)
  call void (ptr, ptr, ...) @appendPQExpBuffer(ptr noundef %10, ptr noundef @.str.881, ptr noundef %67)
  %68 = load ptr, ptr %5, align 8
  %69 = getelementptr inbounds nuw %struct.PQExpBufferData, ptr %10, i32 0, i32 0
  %70 = load ptr, ptr %69, align 8
  call void @printTableSetFooter(ptr noundef %68, ptr noundef %70)
  br label %71

71:                                               ; preds = %60, %54
  br label %72

72:                                               ; preds = %71, %47
  %73 = load ptr, ptr %9, align 8
  call void @PQclear(ptr noundef %73)
  call void @termPQExpBuffer(ptr noundef %10)
  store i32 0, ptr %11, align 4
  br label %74

74:                                               ; preds = %72, %46
  call void @llvm.lifetime.end.p0(i64 24, ptr %10) #8
  call void @llvm.lifetime.end.p0(i64 8, ptr %9) #8
  %75 = load i32, ptr %11, align 4
  switch i32 %75, label %79 [
    i32 0, label %76
    i32 1, label %78
  ]

76:                                               ; preds = %74
  br label %77

77:                                               ; preds = %76, %36
  br label %78

78:                                               ; preds = %74, %77, %32
  ret void

79:                                               ; preds = %74
  unreachable
}