; Function Attrs: nounwind uwtable
define internal fastcc void @add_tablespace_footer(ptr noundef nonnull %0, i8 noundef signext %1, i32 noundef %2, i1 noundef zeroext %3) unnamed_addr #0 {
  %5 = alloca %struct.PQExpBufferData, align 8
  %6 = and i8 %1, -5
  %7 = icmp eq i8 %6, 105
  %8 = and i8 %1, -3
  %9 = icmp eq i8 %8, 112
  %or.cond8 = or i1 %9, %7
  %10 = icmp eq i8 %1, 73
  %or.cond11 = or i1 %10, %or.cond8
  %11 = icmp eq i8 %1, 116
  %or.cond14 = or i1 %11, %or.cond11
  %12 = icmp ne i32 %2, 0
  %or.cond16 = and i1 %12, %or.cond14
  br i1 %or.cond16, label %13, label %31

13:                                               ; preds = %4
  call void @llvm.lifetime.start.p0(i64 24, ptr nonnull %5) #8
  call void @initPQExpBuffer(ptr noundef nonnull %5) #8
  call void (ptr, ptr, ...) @printfPQExpBuffer(ptr noundef nonnull %5, ptr noundef nonnull @.str.878, i32 noundef %2) #8
  %14 = load ptr, ptr %5, align 8
  %15 = call ptr @PSQLexec(ptr noundef %14) #8
  %.not = icmp eq ptr %15, null
  br i1 %.not, label %30, label %16

16:                                               ; preds = %13
  %17 = call i32 @PQntuples(ptr noundef nonnull %15) #8
  %18 = icmp sgt i32 %17, 0
  br i1 %18, label %19, label %29

19:                                               ; preds = %16
  br i1 %3, label %20, label %23

20:                                               ; preds = %19
  %21 = call ptr @PQgetvalue(ptr noundef nonnull %15, i32 noundef 0, i32 noundef 0) #8
  call void (ptr, ptr, ...) @printfPQExpBuffer(ptr noundef nonnull %5, ptr noundef nonnull @.str.879, ptr noundef %21) #8
  %22 = load ptr, ptr %5, align 8
  call void @printTableAddFooter(ptr noundef nonnull %0, ptr noundef %22) #8
  br label %29

23:                                               ; preds = %19
  %24 = getelementptr inbounds nuw i8, ptr %0, i64 80
  %25 = load ptr, ptr %24, align 8
  %26 = load ptr, ptr %25, align 8
  call void (ptr, ptr, ...) @printfPQExpBuffer(ptr noundef nonnull %5, ptr noundef nonnull @.str.880, ptr noundef %26) #8
  %27 = call ptr @PQgetvalue(ptr noundef nonnull %15, i32 noundef 0, i32 noundef 0) #8
  call void (ptr, ptr, ...) @appendPQExpBuffer(ptr noundef nonnull %5, ptr noundef nonnull @.str.881, ptr noundef %27) #8
  %28 = load ptr, ptr %5, align 8
  call void @printTableSetFooter(ptr noundef nonnull %0, ptr noundef %28) #8
  br label %29

29:                                               ; preds = %20, %23, %16
  call void @PQclear(ptr noundef nonnull %15) #8
  br label %30

30:                                               ; preds = %13, %29
  call void @termPQExpBuffer(ptr noundef nonnull %5) #8
  call void @llvm.lifetime.end.p0(i64 24, ptr nonnull %5) #8
  br label %31

31:                                               ; preds = %30, %4
  ret void
}